(dp1
S'OriginalConfig'
p2
ccopy_reg
_reconstructor
p3
(cWMCore.Configuration
Configuration
p4
c__builtin__
object
p5
NtRp6
(dp7
S'Site'
p8
g3
(cWMCore.Configuration
ConfigSection
p9
g5
NtRp10
(dp11
S'_internal_skipChecks'
p12
I00
sS'_internal_documentation'
p13
S''
sS'_internal_settings'
p14
c__builtin__
set
p15
((lp16
S'storageSite'
p17
atRp18
sS'_internal_name'
p19
g8
sS'_internal_docstrings'
p20
(dp21
sS'_internal_children'
p22
g15
((ltRp23
sg17
S'T2_US_Wisconsin'
p24
sS'_internal_parent_ref'
p25
NsbsS'_internal_sections'
p26
(lp27
S'General'
p28
aS'JobType'
p29
aS'Data'
p30
ag8
asg28
g3
(g9
g5
NtRp31
(dp32
g12
I00
sg13
S''
sg14
g15
((lp33
S'workArea'
p34
aS'requestName'
p35
atRp36
sg19
g28
sg20
(dp37
sg22
g15
((ltRp38
sg35
S'pickEvents'
p39
sg25
Nsg34
S'crab_pickevents_20190923_070732'
p40
sbsS'_internal_webapps'
p41
(lp42
sS'_internal_components'
p43
(lp44
sg30
g3
(g9
g5
NtRp45
(dp46
S'inputDataset'
p47
S'/DoubleEG/Run2016G-23Sep2016-v1/AOD'
p48
sg12
I00
sS'splitting'
p49
S'LumiBased'
p50
sS'unitsPerJob'
p51
I5
sg13
S''
sg14
g15
((lp52
g47
ag51
aS'lumiMask'
p53
aS'inputDBS'
p54
ag49
atRp55
sg19
g30
sg54
S'global'
p56
sg20
(dp57
sg22
g15
((ltRp58
sg25
Nsg53
S'pickevents.json'
p59
sbsg29
g3
(g9
g5
NtRp60
(dp61
g12
I00
sS'pyCfgParams'
p62
(lp63
S'eventsToProcess_load=pickevents_runEvents.txt'
p64
aS'outputFile=pickevents.root'
p65
asg13
S''
sg14
g15
((lp66
S'psetName'
p67
aS'pluginName'
p68
ag62
atRp69
sg19
g29
sg20
(dp70
sg68
S'Analysis'
p71
sg22
g15
((ltRp72
sg67
S'/cvmfs/cms.cern.ch/slc6_amd64_gcc530/cms/cmssw-patch/CMSSW_8_0_26_patch1/src/PhysicsTools/Utilities/configuration/copyPickMerge_cfg.py'
p73
sg25
NsbsbsS'voGroup'
p74
S''
sS'Server'
p75
S'cmsweb.cern.ch'
p76
sS'instance'
p77
S'prod'
p78
sS'RequestName'
p79
V190923_121005:suho_crab_pickEvents
p80
sS'voRole'
p81
S'NULL'
p82
sS'Port'
p83
S''
s.